target datalayout = "e-m:e-p270:32:32-p271:32:32-p272:64:64-i64:64-i128:128-f80:128-n8:16:32:64-S128"
target triple = "x86_64-pc-linux-gnu"

@.str.1 = private unnamed_addr constant [3 x i8] c"UV\00", align 1
@.str.2 = private unnamed_addr constant [4 x i8] c"Box\00", align 1
@.str.3 = private unnamed_addr constant [7 x i8] c"Sphere\00", align 1
@.str.4 = private unnamed_addr constant [9 x i8] c"Cylinder\00", align 1
@.str.5 = private unnamed_addr constant [6 x i8] c"Plane\00", align 1
@.str.6 = private unnamed_addr constant [6 x i8] c"Other\00", align 1
@.str.7 = private unnamed_addr constant [4 x i8] c"BUG\00", align 1

; Function Attrs: mustprogress nounwind uwtable
define hidden noundef ptr @_ZN6Assimp19MappingTypeToStringE16aiTextureMapping(i32 noundef %0) #2 {
  %2 = alloca ptr, align 8
  %3 = alloca i32, align 4
  store i32 %0, ptr %3, align 4
  %4 = load i32, ptr %3, align 4
  switch i32 %4, label %11 [
    i32 0, label %5
    i32 3, label %6
    i32 1, label %7
    i32 2, label %8
    i32 4, label %9
    i32 5, label %10
  ]

5:                                                ; preds = %1
  store ptr @.str.1, ptr %2, align 8
  br label %13

6:                                                ; preds = %1
  store ptr @.str.2, ptr %2, align 8
  br label %13

7:                                                ; preds = %1
  store ptr @.str.3, ptr %2, align 8
  br label %13

8:                                                ; preds = %1
  store ptr @.str.4, ptr %2, align 8
  br label %13

9:                                                ; preds = %1
  store ptr @.str.5, ptr %2, align 8
  br label %13

10:                                               ; preds = %1
  store ptr @.str.6, ptr %2, align 8
  br label %13

11:                                               ; preds = %1
  br label %12

12:                                               ; preds = %11
  store ptr @.str.7, ptr %2, align 8
  br label %13

13:                                               ; preds = %12, %10, %9, %8, %7, %6, %5
  %14 = load ptr, ptr %2, align 8
  ret ptr %14
}